target datalayout = "e-m:e-p270:32:32-p271:32:32-p272:64:64-i64:64-i128:128-f80:128-n8:16:32:64-S128"
target triple = "x86_64-pc-linux-gnu"

@exit_code = dso_local global i32 0, align 4
@quiet_flag = dso_local global i32 0, align 4
@stderr = external global ptr, align 8
@.str.43 = private unnamed_addr constant [5 x i8] c"ASAP\00", align 1
@.str.48 = private unnamed_addr constant [5 x i8] c"DOWN\00", align 1
@.str.52 = private unnamed_addr constant [35 x i8] c"too many arguments for keyword:%s\0A\00", align 1
@.str.55 = private unnamed_addr constant [3 x i8] c"UP\00", align 1
@.str.56 = private unnamed_addr constant [25 x i8] c"unexpected argument: %s\0A\00", align 1
@.str.57 = private unnamed_addr constant [6 x i8] c"FORCE\00", align 1
@.str.58 = private unnamed_addr constant [34 x i8] c"unrecognized optional command:%s\0A\00", align 1
@.str.59 = private unnamed_addr constant [54 x i8] c"The '%s' argument is not valid for power up requests\0A\00", align 1
@.str.60 = private unnamed_addr constant [34 x i8] c"too few arguments for keyword:%s\0A\00", align 1
@.str.61 = private unnamed_addr constant [27 x i8] c"scontrol_power_nodes error\00", align 1

; Function Attrs: nounwind uwtable
define dso_local void @_process_power_command(ptr noundef %0, i32 noundef %1, ptr noundef %2) #0 {
  %4 = alloca ptr, align 8
  %5 = alloca i32, align 4
  %6 = alloca ptr, align 8
  %7 = alloca i32, align 4
  %8 = alloca i8, align 1
  %9 = alloca i8, align 1
  %10 = alloca i8, align 1
  %11 = alloca i32, align 4
  %12 = alloca i32, align 4
  %13 = alloca i32, align 4
  %14 = alloca i32, align 4
  store ptr %0, ptr %4, align 8
  store i32 %1, ptr %5, align 4
  store ptr %2, ptr %6, align 8
  call void @llvm.lifetime.start.p0(i64 4, ptr %7) #12
  store i32 0, ptr %7, align 4
  call void @llvm.lifetime.start.p0(i64 1, ptr %8) #12
  call void @llvm.lifetime.start.p0(i64 1, ptr %9) #12
  store i8 0, ptr %9, align 1
  call void @llvm.lifetime.start.p0(i64 1, ptr %10) #12
  store i8 0, ptr %10, align 1
  call void @llvm.lifetime.start.p0(i64 4, ptr %11) #12
  store i32 3, ptr %11, align 4
  call void @llvm.lifetime.start.p0(i64 4, ptr %12) #12
  store i32 4, ptr %12, align 4
  %15 = load i32, ptr %5, align 4
  %16 = load i32, ptr %12, align 4
  %17 = icmp sle i32 %15, %16
  br i1 %17, label %18, label %118

18:                                               ; preds = %3
  %19 = load i32, ptr %5, align 4
  %20 = load i32, ptr %11, align 4
  %21 = icmp sge i32 %19, %20
  br i1 %21, label %22, label %118

22:                                               ; preds = %18
  call void @llvm.lifetime.start.p0(i64 4, ptr %13) #12
  store i32 1, ptr %13, align 4
  %23 = load ptr, ptr %6, align 8
  %24 = load i32, ptr %13, align 4
  %25 = sext i32 %24 to i64
  %26 = getelementptr inbounds ptr, ptr %23, i64 %25
  %27 = load ptr, ptr %26, align 8
  %28 = call i32 @xstrcasecmp(ptr noundef %27, ptr noundef @.str.55)
  %29 = icmp ne i32 %28, 0
  br i1 %29, label %31, label %30

30:                                               ; preds = %22
  store i8 1, ptr %8, align 1
  br label %49

31:                                               ; preds = %22
  %32 = load ptr, ptr %6, align 8
  %33 = load i32, ptr %13, align 4
  %34 = sext i32 %33 to i64
  %35 = getelementptr inbounds ptr, ptr %32, i64 %34
  %36 = load ptr, ptr %35, align 8
  %37 = call i32 @xstrcasecmp(ptr noundef %36, ptr noundef @.str.48)
  %38 = icmp ne i32 %37, 0
  br i1 %38, label %40, label %39

39:                                               ; preds = %31
  store i8 0, ptr %8, align 1
  br label %48

40:                                               ; preds = %31
  store i32 1, ptr @exit_code, align 4
  %41 = load ptr, ptr @stderr, align 8
  %42 = load ptr, ptr %6, align 8
  %43 = load i32, ptr %13, align 4
  %44 = sext i32 %43 to i64
  %45 = getelementptr inbounds ptr, ptr %42, i64 %44
  %46 = load ptr, ptr %45, align 8
  %47 = call i32 (ptr, ptr, ...) @fprintf(ptr noundef %41, ptr noundef @.str.56, ptr noundef %46) #12
  store i32 2, ptr %14, align 4
  br label %115

48:                                               ; preds = %39
  br label %49

49:                                               ; preds = %48, %30
  %50 = load i32, ptr %13, align 4
  %51 = add nsw i32 %50, 1
  store i32 %51, ptr %13, align 4
  %52 = load i32, ptr %5, align 4
  %53 = load i32, ptr %12, align 4
  %54 = icmp eq i32 %52, %53
  br i1 %54, label %55, label %102

55:                                               ; preds = %49
  %56 = load ptr, ptr %6, align 8
  %57 = load i32, ptr %13, align 4
  %58 = sext i32 %57 to i64
  %59 = getelementptr inbounds ptr, ptr %56, i64 %58
  %60 = load ptr, ptr %59, align 8
  %61 = call i32 @xstrcasecmp(ptr noundef %60, ptr noundef @.str.43)
  %62 = icmp ne i32 %61, 0
  br i1 %62, label %64, label %63

63:                                               ; preds = %55
  store i8 1, ptr %9, align 1
  br label %82

64:                                               ; preds = %55
  %65 = load ptr, ptr %6, align 8
  %66 = load i32, ptr %13, align 4
  %67 = sext i32 %66 to i64
  %68 = getelementptr inbounds ptr, ptr %65, i64 %67
  %69 = load ptr, ptr %68, align 8
  %70 = call i32 @xstrcasecmp(ptr noundef %69, ptr noundef @.str.57)
  %71 = icmp ne i32 %70, 0
  br i1 %71, label %73, label %72

72:                                               ; preds = %64
  store i8 1, ptr %10, align 1
  br label %81

73:                                               ; preds = %64
  store i32 1, ptr @exit_code, align 4
  %74 = load ptr, ptr @stderr, align 8
  %75 = load ptr, ptr %6, align 8
  %76 = load i32, ptr %13, align 4
  %77 = sext i32 %76 to i64
  %78 = getelementptr inbounds ptr, ptr %75, i64 %77
  %79 = load ptr, ptr %78, align 8
  %80 = call i32 (ptr, ptr, ...) @fprintf(ptr noundef %74, ptr noundef @.str.58, ptr noundef %79) #12
  store i32 2, ptr %14, align 4
  br label %115

81:                                               ; preds = %72
  br label %82

82:                                               ; preds = %81, %63
  %83 = load i8, ptr %10, align 1, !range !21, !noundef !22
  %84 = trunc i8 %83 to i1
  br i1 %84, label %88, label %85

85:                                               ; preds = %82
  %86 = load i8, ptr %9, align 1, !range !21, !noundef !22
  %87 = trunc i8 %86 to i1
  br i1 %87, label %88, label %99

88:                                               ; preds = %85, %82
  %89 = load i8, ptr %8, align 1, !range !21, !noundef !22
  %90 = trunc i8 %89 to i1
  br i1 %90, label %91, label %99

91:                                               ; preds = %88
  store i32 1, ptr @exit_code, align 4
  %92 = load ptr, ptr @stderr, align 8
  %93 = load ptr, ptr %6, align 8
  %94 = load i32, ptr %13, align 4
  %95 = sext i32 %94 to i64
  %96 = getelementptr inbounds ptr, ptr %93, i64 %95
  %97 = load ptr, ptr %96, align 8
  %98 = call i32 (ptr, ptr, ...) @fprintf(ptr noundef %92, ptr noundef @.str.59, ptr noundef %97) #12
  store i32 2, ptr %14, align 4
  br label %115

99:                                               ; preds = %88, %85
  %100 = load i32, ptr %13, align 4
  %101 = add nsw i32 %100, 1
  store i32 %101, ptr %13, align 4
  br label %102

102:                                              ; preds = %99, %49
  %103 = load ptr, ptr %6, align 8
  %104 = load i32, ptr %13, align 4
  %105 = sext i32 %104 to i64
  %106 = getelementptr inbounds ptr, ptr %103, i64 %105
  %107 = load ptr, ptr %106, align 8
  %108 = load i8, ptr %8, align 1, !range !21, !noundef !22
  %109 = trunc i8 %108 to i1
  %110 = load i8, ptr %9, align 1, !range !21, !noundef !22
  %111 = trunc i8 %110 to i1
  %112 = load i8, ptr %10, align 1, !range !21, !noundef !22
  %113 = trunc i8 %112 to i1
  %114 = call i32 @scontrol_power_nodes(ptr noundef %107, i1 noundef zeroext %109, i1 noundef zeroext %111, i1 noundef zeroext %113)
  store i32 %114, ptr %7, align 4
  store i32 0, ptr %14, align 4
  br label %115

115:                                              ; preds = %91, %73, %40, %102
  call void @llvm.lifetime.end.p0(i64 4, ptr %13) #12
  %116 = load i32, ptr %14, align 4
  switch i32 %116, label %150 [
    i32 0, label %117
    i32 2, label %141
  ]

117:                                              ; preds = %115
  br label %140

118:                                              ; preds = %18, %3
  %119 = load i32, ptr %5, align 4
  %120 = load i32, ptr %11, align 4
  %121 = icmp slt i32 %119, %120
  br i1 %121, label %122, label %128

122:                                              ; preds = %118
  store i32 1, ptr @exit_code, align 4
  %123 = load ptr, ptr @stderr, align 8
  %124 = load ptr, ptr %6, align 8
  %125 = getelementptr inbounds ptr, ptr %124, i64 0
  %126 = load ptr, ptr %125, align 8
  %127 = call i32 (ptr, ptr, ...) @fprintf(ptr noundef %123, ptr noundef @.str.60, ptr noundef %126) #12
  br label %139

128:                                              ; preds = %118
  %129 = load i32, ptr %5, align 4
  %130 = load i32, ptr %12, align 4
  %131 = icmp sgt i32 %129, %130
  br i1 %131, label %132, label %138

132:                                              ; preds = %128
  store i32 1, ptr @exit_code, align 4
  %133 = load ptr, ptr @stderr, align 8
  %134 = load ptr, ptr %6, align 8
  %135 = getelementptr inbounds ptr, ptr %134, i64 0
  %136 = load ptr, ptr %135, align 8
  %137 = call i32 (ptr, ptr, ...) @fprintf(ptr noundef %133, ptr noundef @.str.52, ptr noundef %136) #12
  br label %138

138:                                              ; preds = %132, %128
  br label %139

139:                                              ; preds = %138, %122
  br label %140

140:                                              ; preds = %139, %117
  br label %141

141:                                              ; preds = %140, %115
  %142 = load i32, ptr %7, align 4
  %143 = icmp ne i32 %142, 0
  br i1 %143, label %144, label %149

144:                                              ; preds = %141
  store i32 1, ptr @exit_code, align 4
  %145 = load i32, ptr @quiet_flag, align 4
  %146 = icmp ne i32 %145, 1
  br i1 %146, label %147, label %148

147:                                              ; preds = %144
  call void @slurm_perror(ptr noundef @.str.61)
  br label %148

148:                                              ; preds = %147, %144
  br label %149

149:                                              ; preds = %148, %141
  call void @llvm.lifetime.end.p0(i64 4, ptr %12) #12
  call void @llvm.lifetime.end.p0(i64 4, ptr %11) #12
  call void @llvm.lifetime.end.p0(i64 1, ptr %10) #12
  call void @llvm.lifetime.end.p0(i64 1, ptr %9) #12
  call void @llvm.lifetime.end.p0(i64 1, ptr %8) #12
  call void @llvm.lifetime.end.p0(i64 4, ptr %7) #12
  ret void

150:                                              ; preds = %115
  unreachable
}