; Function Attrs: nounwind uwtable
define dso_local void @_process_power_command(ptr readnone captures(none) %0, i32 noundef %1, ptr noundef readonly captures(none) %2) local_unnamed_addr #8 {
  %4 = add i32 %1, -3
  %or.cond = icmp ult i32 %4, 2
  br i1 %or.cond, label %5, label %39

5:                                                ; preds = %3
  %6 = getelementptr inbounds nuw i8, ptr %2, i64 8
  %7 = load ptr, ptr %6, align 8
  %8 = tail call i32 @xstrcasecmp(ptr noundef %7, ptr noundef nonnull @.str.55) #18
  %.not = icmp eq i32 %8, 0
  br i1 %.not, label %16, label %9

9:                                                ; preds = %5
  %10 = load ptr, ptr %6, align 8
  %11 = tail call i32 @xstrcasecmp(ptr noundef %10, ptr noundef nonnull @.str.48) #18
  %.not43 = icmp eq i32 %11, 0
  br i1 %.not43, label %16, label %12

12:                                               ; preds = %9
  store i32 1, ptr @exit_code, align 4
  %13 = load ptr, ptr @stderr, align 8
  %14 = load ptr, ptr %6, align 8
  %15 = tail call i32 (ptr, ptr, ...) @fprintf(ptr noundef %13, ptr noundef nonnull @.str.56, ptr noundef %14) #22
  br label %.critedge

16:                                               ; preds = %9, %5
  %17 = icmp eq i32 %1, 4
  br i1 %17, label %18, label %34

18:                                               ; preds = %16
  %19 = getelementptr inbounds nuw i8, ptr %2, i64 16
  %20 = load ptr, ptr %19, align 8
  %21 = tail call i32 @xstrcasecmp(ptr noundef %20, ptr noundef nonnull @.str.43) #18
  %.not44 = icmp eq i32 %21, 0
  br i1 %.not44, label %29, label %22

22:                                               ; preds = %18
  %23 = load ptr, ptr %19, align 8
  %24 = tail call i32 @xstrcasecmp(ptr noundef %23, ptr noundef nonnull @.str.57) #18
  %.not45 = icmp eq i32 %24, 0
  br i1 %.not45, label %29, label %25

25:                                               ; preds = %22
  store i32 1, ptr @exit_code, align 4
  %26 = load ptr, ptr @stderr, align 8
  %27 = load ptr, ptr %19, align 8
  %28 = tail call i32 (ptr, ptr, ...) @fprintf(ptr noundef %26, ptr noundef nonnull @.str.58, ptr noundef %27) #22
  br label %.critedge

29:                                               ; preds = %22, %18
  %.139 = xor i1 %.not44, true
  br i1 %.not, label %30, label %34

30:                                               ; preds = %29
  store i32 1, ptr @exit_code, align 4
  %31 = load ptr, ptr @stderr, align 8
  %32 = load ptr, ptr %19, align 8
  %33 = tail call i32 (ptr, ptr, ...) @fprintf(ptr noundef %31, ptr noundef nonnull @.str.59, ptr noundef %32) #22
  br label %.critedge

34:                                               ; preds = %29, %16
  %.040 = phi i1 [ false, %16 ], [ %.not44, %29 ]
  %.038 = phi i1 [ false, %16 ], [ %.139, %29 ]
  %.0 = phi i64 [ 2, %16 ], [ 3, %29 ]
  %35 = getelementptr inbounds nuw ptr, ptr %2, i64 %.0
  %36 = load ptr, ptr %35, align 8
  %37 = tail call i32 @scontrol_power_nodes(ptr noundef %36, i1 noundef zeroext %.not, i1 noundef zeroext %.040, i1 noundef zeroext %.038) #18
  %38 = icmp eq i32 %37, 0
  br i1 %38, label %.critedge, label %47

39:                                               ; preds = %3
  %40 = icmp slt i32 %1, 3
  store i32 1, ptr @exit_code, align 4
  %41 = load ptr, ptr @stderr, align 8
  %42 = load ptr, ptr %2, align 8
  br i1 %40, label %43, label %45

43:                                               ; preds = %39
  %44 = tail call i32 (ptr, ptr, ...) @fprintf(ptr noundef %41, ptr noundef nonnull @.str.60, ptr noundef %42) #22
  br label %.critedge

45:                                               ; preds = %39
  %46 = tail call i32 (ptr, ptr, ...) @fprintf(ptr noundef %41, ptr noundef nonnull @.str.52, ptr noundef %42) #22
  br label %.critedge

47:                                               ; preds = %34
  store i32 1, ptr @exit_code, align 4
  %48 = load i32, ptr @quiet_flag, align 4
  %.not47 = icmp eq i32 %48, 1
  br i1 %.not47, label %.critedge, label %49

49:                                               ; preds = %47
  tail call void @slurm_perror(ptr noundef nonnull @.str.61) #18
  br label %.critedge

.critedge:                                        ; preds = %43, %45, %12, %25, %30, %47, %49, %34
  ret void
}